target datalayout = "e-m:e-p270:32:32-p271:32:32-p272:64:64-i64:64-i128:128-f80:128-n8:16:32:64-S128"
target triple = "x86_64-pc-linux-gnu"

%struct.quic_stream_list_node_st = type { ptr, ptr }
%struct.quic_stream_st = type { %struct.quic_stream_list_node_st, %struct.quic_stream_list_node_st, %struct.quic_stream_list_node_st, ptr, i64, i64, i64, i64, i64, i64, i64, ptr, ptr, %struct.quic_txfc_st, %struct.quic_rxfc_st, i64 }
%struct.quic_txfc_st = type { ptr, i64, i64, i8 }
%struct.quic_rxfc_st = type { i64, i64, i64, i64, i64, i64, i64, %struct.OSSL_TIME, ptr, ptr, ptr, i8, i8, i8, i8 }
%struct.OSSL_TIME = type { i64 }

; Function Attrs: inlinehint nounwind uwtable
define internal i32 @ossl_quic_stream_recv_get_final_size(ptr noundef %0, ptr noundef %1) #1 {
  %3 = alloca i32, align 4
  %4 = alloca ptr, align 8
  %5 = alloca ptr, align 8
  store ptr %0, ptr %4, align 8, !tbaa !37
  store ptr %1, ptr %5, align 8, !tbaa !63
  %6 = load ptr, ptr %4, align 8, !tbaa !37
  %7 = getelementptr inbounds nuw %struct.quic_stream_st, ptr %6, i32 0, i32 15
  %8 = load i64, ptr %7, align 8
  %9 = lshr i64 %8, 16
  %10 = and i64 %9, 255
  %11 = trunc i64 %10 to i32
  switch i32 %11, label %12 [
    i32 0, label %13
    i32 1, label %13
    i32 2, label %14
    i32 3, label %14
    i32 4, label %14
    i32 5, label %14
    i32 6, label %14
  ]

12:                                               ; preds = %2
  br label %13

13:                                               ; preds = %2, %2, %12
  store i32 0, ptr %3, align 4
  br label %28

14:                                               ; preds = %2, %2, %2, %2, %2
  %15 = load ptr, ptr %4, align 8, !tbaa !37
  %16 = getelementptr inbounds nuw %struct.quic_stream_st, ptr %15, i32 0, i32 14
  %17 = load ptr, ptr %5, align 8, !tbaa !63
  %18 = call i32 @ossl_quic_rxfc_get_final_size(ptr noundef %16, ptr noundef %17)
  %19 = icmp ne i32 %18, 0
  %20 = xor i1 %19, true
  %21 = xor i1 %20, true
  %22 = zext i1 %21 to i32
  %23 = sext i32 %22 to i64
  %24 = call i64 @llvm.expect.i64(i64 %23, i64 1)
  %25 = icmp ne i64 %24, 0
  br i1 %25, label %27, label %26

26:                                               ; preds = %14
  store i32 0, ptr %3, align 4
  br label %28

27:                                               ; preds = %14
  store i32 1, ptr %3, align 4
  br label %28

28:                                               ; preds = %27, %26, %13
  %29 = load i32, ptr %3, align 4
  ret i32 %29
}

; Function Attrs: nounwind uwtable
define i32 @ossl_quic_stream_map_notify_reset_recv_part(ptr noundef %0, ptr noundef %1, i64 noundef %2, i64 noundef %3) #0 {
  %5 = alloca i32, align 4
  %6 = alloca ptr, align 8
  %7 = alloca ptr, align 8
  %8 = alloca i64, align 8
  %9 = alloca i64, align 8
  %10 = alloca i64, align 8
  %11 = alloca i32, align 4
  store ptr %0, ptr %6, align 8, !tbaa !3
  store ptr %1, ptr %7, align 8, !tbaa !37
  store i64 %2, ptr %8, align 8, !tbaa !47
  store i64 %3, ptr %9, align 8, !tbaa !47
  call void @llvm.lifetime.start.p0(i64 8, ptr %10) #5
  %12 = load ptr, ptr %7, align 8, !tbaa !37
  %13 = getelementptr inbounds nuw %struct.quic_stream_st, ptr %12, i32 0, i32 15
  %14 = load i64, ptr %13, align 8
  %15 = lshr i64 %14, 16
  %16 = and i64 %15, 255
  %17 = trunc i64 %16 to i32
  switch i32 %17, label %18 [
    i32 0, label %19
    i32 1, label %20
    i32 2, label %20
    i32 3, label %20
    i32 4, label %50
    i32 5, label %50
    i32 6, label %50
  ]

18:                                               ; preds = %4
  br label %19

19:                                               ; preds = %4, %18
  store i32 0, ptr %5, align 4
  store i32 1, ptr %11, align 4
  br label %51

20:                                               ; preds = %4, %4, %4
  %21 = load ptr, ptr %7, align 8, !tbaa !37
  %22 = call i32 @ossl_quic_stream_recv_get_final_size(ptr noundef %21, ptr noundef %10)
  %23 = icmp ne i32 %22, 0
  br i1 %23, label %24, label %29

24:                                               ; preds = %20
  %25 = load i64, ptr %10, align 8, !tbaa !47
  %26 = load i64, ptr %9, align 8, !tbaa !47
  %27 = icmp ne i64 %25, %26
  br i1 %27, label %28, label %29

28:                                               ; preds = %24
  store i32 0, ptr %5, align 4
  store i32 1, ptr %11, align 4
  br label %51

29:                                               ; preds = %24, %20
  %30 = load ptr, ptr %7, align 8, !tbaa !37
  %31 = getelementptr inbounds nuw %struct.quic_stream_st, ptr %30, i32 0, i32 15
  %32 = load i64, ptr %31, align 8
  %33 = and i64 %32, -16711681
  %34 = or i64 %33, 327680
  store i64 %34, ptr %31, align 8
  %35 = load i64, ptr %8, align 8, !tbaa !47
  %36 = load ptr, ptr %7, align 8, !tbaa !37
  %37 = getelementptr inbounds nuw %struct.quic_stream_st, ptr %36, i32 0, i32 8
  store i64 %35, ptr %37, align 8, !tbaa !62
  %38 = load ptr, ptr %7, align 8, !tbaa !37
  %39 = getelementptr inbounds nuw %struct.quic_stream_st, ptr %38, i32 0, i32 15
  %40 = load i64, ptr %39, align 8
  %41 = and i64 %40, -17179869185
  %42 = or i64 %41, 0
  store i64 %42, ptr %39, align 8
  %43 = load ptr, ptr %7, align 8, !tbaa !37
  %44 = getelementptr inbounds nuw %struct.quic_stream_st, ptr %43, i32 0, i32 12
  %45 = load ptr, ptr %44, align 8, !tbaa !53
  call void @ossl_quic_rstream_free(ptr noundef %45)
  %46 = load ptr, ptr %7, align 8, !tbaa !37
  %47 = getelementptr inbounds nuw %struct.quic_stream_st, ptr %46, i32 0, i32 12
  store ptr null, ptr %47, align 8, !tbaa !53
  %48 = load ptr, ptr %6, align 8, !tbaa !3
  %49 = load ptr, ptr %7, align 8, !tbaa !37
  call void @ossl_quic_stream_map_update_state(ptr noundef %48, ptr noundef %49)
  store i32 1, ptr %5, align 4
  store i32 1, ptr %11, align 4
  br label %51

50:                                               ; preds = %4, %4, %4
  store i32 1, ptr %5, align 4
  store i32 1, ptr %11, align 4
  br label %51

51:                                               ; preds = %50, %29, %28, %19
  call void @llvm.lifetime.end.p0(i64 8, ptr %10) #5
  %52 = load i32, ptr %5, align 4
  ret i32 %52
}